target datalayout = "e-m:e-p270:32:32-p271:32:32-p272:64:64-i64:64-i128:128-f80:128-n8:16:32:64-S128"
target triple = "x86_64-unknown-linux-gnu"

%"struct.url::CanonHostInfo" = type { i32, i32, %"struct.url::Component", [16 x i8] }
%"struct.url::Component" = type { i32, i32 }

; Function Attrs: mustprogress nounwind uwtable
define linkonce_odr dso_local void @_ZN3url9ComponentC2Ev(ptr noundef nonnull align 4 dereferenceable(8) %this) unnamed_addr #2 comdat align 2 {
entry:
  %this.addr = alloca ptr, align 8
  store ptr %this, ptr %this.addr, align 8
  %this1 = load ptr, ptr %this.addr, align 8
  %begin = getelementptr inbounds %"struct.url::Component", ptr %this1, i32 0, i32 0
  store i32 0, ptr %begin, align 4
  %len = getelementptr inbounds %"struct.url::Component", ptr %this1, i32 0, i32 1
  store i32 -1, ptr %len, align 4
  ret void
}

; Function Attrs: mustprogress uwtable
define linkonce_odr dso_local void @_ZN3url13CanonHostInfoC2Ev(ptr noundef nonnull align 4 dereferenceable(32) %this) unnamed_addr #0 comdat align 2 {
entry:
  %this.addr = alloca ptr, align 8
  store ptr %this, ptr %this.addr, align 8
  %this1 = load ptr, ptr %this.addr, align 8
  %family = getelementptr inbounds %"struct.url::CanonHostInfo", ptr %this1, i32 0, i32 0
  store i32 0, ptr %family, align 4
  %num_ipv4_components = getelementptr inbounds %"struct.url::CanonHostInfo", ptr %this1, i32 0, i32 1
  store i32 0, ptr %num_ipv4_components, align 4
  %out_host = getelementptr inbounds %"struct.url::CanonHostInfo", ptr %this1, i32 0, i32 2
  call void @_ZN3url9ComponentC2Ev(ptr noundef nonnull align 4 dereferenceable(8) %out_host)
  ret void
}

; Function Attrs: mustprogress uwtable
define dso_local noundef zeroext i1 @_ZN3url16CanonicalizeHostEPKtRKNS_9ComponentEPNS_12CanonOutputTIcEEPS2_(ptr noundef %spec, ptr noundef nonnull align 4 dereferenceable(8) %host, ptr noundef %output, ptr noundef %out_host) #0 {
entry:
  %spec.addr = alloca ptr, align 8
  %host.addr = alloca ptr, align 8
  %output.addr = alloca ptr, align 8
  %out_host.addr = alloca ptr, align 8
  %host_info = alloca %"struct.url::CanonHostInfo", align 4
  store ptr %spec, ptr %spec.addr, align 8
  store ptr %host, ptr %host.addr, align 8
  store ptr %output, ptr %output.addr, align 8
  store ptr %out_host, ptr %out_host.addr, align 8
  call void @_ZN3url13CanonHostInfoC2Ev(ptr noundef nonnull align 4 dereferenceable(32) %host_info)
  %0 = load ptr, ptr %spec.addr, align 8
  %1 = load ptr, ptr %host.addr, align 8
  %2 = load ptr, ptr %output.addr, align 8
  call void @_ZN3url12_GLOBAL__N_16DoHostIttEEvPKT_RKNS_9ComponentEPNS_12CanonOutputTIcEEPNS_13CanonHostInfoE(ptr noundef %0, ptr noundef nonnull align 4 dereferenceable(8) %1, ptr noundef %2, ptr noundef %host_info)
  %out_host1 = getelementptr inbounds %"struct.url::CanonHostInfo", ptr %host_info, i32 0, i32 2
  %3 = load ptr, ptr %out_host.addr, align 8
  call void @llvm.memcpy.p0.p0.i64(ptr align 4 %3, ptr align 4 %out_host1, i64 8, i1 false)
  %family = getelementptr inbounds %"struct.url::CanonHostInfo", ptr %host_info, i32 0, i32 0
  %4 = load i32, ptr %family, align 4
  %cmp = icmp ne i32 %4, 1
  ret i1 %cmp
}